EXPORTS
__bbLoadLibs=?_bbLoadLibs@@YGXPAD@Z
__bbInitCStrs=?_bbInitCStrs@@YGXPAPAD@Z
__bbStrTmp=?_bbStrTmp@@YGPAVBBString@@PAV1@@Z
__bbStrTmpFree=?_bbStrTmpFree@@YGXH@Z
__bbIStrTmpFree=?_bbIStrTmpFree@@YGHHH@Z
__bbFStrTmpFree=?_bbFStrTmpFree@@YGMMH@Z
__bbStrRetain=?_bbStrRetain@@YGPAVBBString@@PAV1@@Z
__bbStrRelease=?_bbStrRelease@@YGPAVBBString@@PAV1@@Z
__bbStrLoad=?_bbStrLoad@@YGPAVBBString@@PAPAV1@@Z
__bbStrStore=?_bbStrStore@@YGPAVBBString@@PAPAV1@PAV1@@Z
__bbStrConcat=?_bbStrConcat@@YGPAVBBString@@PAV1@0@Z
__bbStrCompare=?_bbStrCompare@@YGHPAVBBString@@0@Z
__bbStrToInt=?_bbStrToInt@@YGHPAVBBString@@@Z
__bbStrFromInt=?_bbStrFromInt@@YGPAVBBString@@H@Z
__bbStrToFloat=?_bbStrToFloat@@YGMPAVBBString@@@Z
__bbStrFromFloat=?_bbStrFromFloat@@YGPAVBBString@@M@Z
__bbStrToCStr=?_bbStrToCStr@@YGPBDPAVBBString@@@Z
__bbStrFromCStr=?_bbStrFromCStr@@YGPAVBBString@@PBD@Z
__bbDimArray=?_bbDimArray@@YGXPAUBBArray@@@Z
__bbUndimArray=?_bbUndimArray@@YGXPAUBBArray@@@Z
__bbArrayBoundsEx=?_bbArrayBoundsEx@@YGXXZ
__bbVecAlloc=?_bbVecAlloc@@YGPAXPAUBBVecType@@@Z
__bbVecFree=?_bbVecFree@@YGXPAXPAUBBVecType@@@Z
__bbVecBoundsEx=?_bbVecBoundsEx@@YGXXZ
__bbObjNew=?_bbObjNew@@YGPAUBBObj@@PAUBBObjType@@@Z
__bbObjDelete=?_bbObjDelete@@YGXPAUBBObj@@@Z
__bbObjDeleteEach=?_bbObjDeleteEach@@YGXPAUBBObjType@@@Z
__bbObjRelease=?_bbObjRelease@@YGXPAUBBObj@@@Z
__bbObjStore=?_bbObjStore@@YGXPAPAUBBObj@@PAU1@@Z
__bbObjCompare=?_bbObjCompare@@YGHPAUBBObj@@0@Z
__bbObjNext=?_bbObjNext@@YGPAUBBObj@@PAU1@@Z
__bbObjPrev=?_bbObjPrev@@YGPAUBBObj@@PAU1@@Z
__bbObjFirst=?_bbObjFirst@@YGPAUBBObj@@PAUBBObjType@@@Z
__bbObjLast=?_bbObjLast@@YGPAUBBObj@@PAUBBObjType@@@Z
__bbObjInsBefore=?_bbObjInsBefore@@YGXPAUBBObj@@0@Z
__bbObjInsAfter=?_bbObjInsAfter@@YGXPAUBBObj@@0@Z
__bbObjEachFirst=?_bbObjEachFirst@@YGHPAPAUBBObj@@PAUBBObjType@@@Z
__bbObjEachNext=?_bbObjEachNext@@YGHPAPAUBBObj@@@Z
__bbObjEachFirst2=?_bbObjEachFirst2@@YGHPAPAUBBObj@@PAUBBObjType@@@Z
__bbObjEachNext2=?_bbObjEachNext2@@YGHPAPAUBBObj@@@Z
__bbObjToStr=?_bbObjToStr@@YGPAVBBString@@PAUBBObj@@@Z
__bbObjToHandle=?_bbObjToHandle@@YGHPAUBBObj@@@Z
__bbObjFromHandle=?_bbObjFromHandle@@YGPAUBBObj@@HPAUBBObjType@@@Z
__bbNullObjEx=?_bbNullObjEx@@YGXXZ
__bbRestore=?_bbRestore@@YGXPAUBBData@@@Z
__bbReadInt=?_bbReadInt@@YGHXZ
__bbReadFloat=?_bbReadFloat@@YGMXZ
__bbReadStr=?_bbReadStr@@YGPAVBBString@@XZ
__bbAbs=?_bbAbs@@YGHH@Z
__bbSgn=?_bbSgn@@YGHH@Z
__bbMod=?_bbMod@@YGHHH@Z
__bbFAbs=?_bbFAbs@@YGMM@Z
__bbFSgn=?_bbFSgn@@YGMM@Z
__bbFMod=?_bbFMod@@YGMMM@Z
__bbFPow=?_bbFPow@@YGMMM@Z
_fruntimestats=?bbRuntimeStats@@YGXXZ
_fexecfile=?bbExecFile@@YGHPAVBBString@@@Z
_fgetenv=?bbGetEnv@@YGPAVBBString@@PAV1@@Z
_fsetenv=?bbSetEnv@@YGXPAVBBString@@0@Z
_fcommandline=?bbCommandLine@@YGPAVBBString@@XZ
_fwrite=?bbWrite@@YGXPAVBBString@@@Z
_fprint=?bbPrint@@YGXPAVBBString@@@Z
_fruntimeerror=?bbRuntimeError@@YGXPAVBBString@@@Z
_finput=?bbInput@@YGPAVBBString@@PAV1@@Z
_fnotify=?bbNotify@@YGXPAVBBString@@_N@Z
_fconfirm=?bbConfirm@@YGHPAVBBString@@_N@Z
_fproceed=?bbProceed@@YGHPAVBBString@@_N@Z
_fapptitle=?bbSetAppTitle@@YGXPAVBBString@@@Z
_fsystemproperty=?bbSystemProperty@@YGPAVBBString@@PAV1@@Z
_fend=?bbEnd@@YGXXZ
_fdebugobjects=?bbDebugObjects@@YGXXZ
_factiveobjects=?bbActiveObjects@@YGHXZ
_fqueryobject=?bbQueryObject@@YGPAXPAVBBObject@@H@Z
_fstop=?bbDebugStop@@YGXXZ
_fdebuglog=?bbDebugLog@@YGXPAVBBString@@@Z
__bbDebugStmt=?bbDebugStmt@@YGXHPBD@Z
__bbDebugEnter=?bbDebugEnter@@YGXPAX0PBD@Z
__bbDebugLeave=?bbDebugLeave@@YGXXZ
_fsin=?bbSin@@YGMM@Z
_fcos=?bbCos@@YGMM@Z
_ftan=?bbTan@@YGMM@Z
_fasin=?bbASin@@YGMM@Z
_facos=?bbACos@@YGMM@Z
_fatan=?bbATan@@YGMM@Z
_fatan2=?bbATan2@@YGMMM@Z
_fsqr=?bbSqr@@YGMM@Z
_ffloor=?bbFloor@@YGMM@Z
_fceil=?bbCeil@@YGMM@Z
_fexp=?bbExp@@YGMM@Z
_flog=?bbLog@@YGMM@Z
_flog10=?bbLog10@@YGMM@Z
_frnd=?bbRnd@@YGMMM@Z
_frand=?bbRand@@YGHHH@Z
_fseedrnd=?bbSeedRnd@@YGXH@Z
_frndseed=?bbRndSeed@@YGHXZ
_fstring=?bbStrStr@@YGPAVBBString@@PAV1@H@Z
_fleft=?bbLeft@@YGPAVBBString@@PAV1@H@Z
_fright=?bbRight@@YGPAVBBString@@PAV1@H@Z
_freplace=?bbReplace@@YGPAVBBString@@PAV1@00@Z
_finstr=?bbInstr@@YGHPAVBBString@@0H@Z
_fmid=?bbMid@@YGPAVBBString@@PAV1@HH@Z
_fupper=?bbUpper@@YGPAVBBString@@PAV1@@Z
_flower=?bbLower@@YGPAVBBString@@PAV1@@Z
_ftrim=?bbTrim@@YGPAVBBString@@PAV1@@Z
_flset=?bbLSet@@YGPAVBBString@@PAV1@H@Z
_frset=?bbRSet@@YGPAVBBString@@PAV1@H@Z
_fchr=?bbChr@@YGPAVBBString@@H@Z
_fasc=?bbAsc@@YGHPAVBBString@@@Z
_flen=?bbLen@@YGHPAVBBString@@@Z
_fhex=?bbHex@@YGPAVBBString@@H@Z
_fbin=?bbBin@@YGPAVBBString@@H@Z
_fcreatebank=?bbCreateBank@@YGPAVBBBank@@H@Z
_ffreebank=?bbFreeBank@@YGXPAVBBBank@@@Z
_fbanksize=?bbBankSize@@YGHPAVBBBank@@@Z
_fresizebank=?bbResizeBank@@YGXPAVBBBank@@H@Z
_fcopybank=?bbCopyBank@@YGXPAVBBBank@@H0HH@Z
_fpeekbyte=?bbPeekByte@@YGHPAVBBBank@@H@Z
_fpeekshort=?bbPeekShort@@YGHPAVBBBank@@H@Z
_fpeekint=?bbPeekInt@@YGHPAVBBBank@@H@Z
_fpeekfloat=?bbPeekFloat@@YGMPAVBBBank@@H@Z
_fpokebyte=?bbPokeByte@@YGXPAVBBBank@@HH@Z
_fpokeshort=?bbPokeShort@@YGXPAVBBBank@@HH@Z
_fpokeint=?bbPokeInt@@YGXPAVBBBank@@HH@Z
_fpokefloat=?bbPokeFloat@@YGXPAVBBBank@@HM@Z
_freadbytes=?bbReadBytes@@YGHPAVBBBank@@PAVBBStream@@HH@Z
_fwritebytes=?bbWriteBytes@@YGHPAVBBBank@@PAVBBStream@@HH@Z
_fcalldll=?bbCallDLL@@YGHPAVBBString@@0PAVBBBank@@1@Z
_fautosuspend=?bbAutoSuspend@@YGXH@Z
_fflushevents=?bbFlushEvents@@YGXHPAVBBEventSource@@@Z
_fhotkeyevent=?bbHotKeyEvent@@YGXHHHHHHHPAVBBEventSource@@@Z
_feof=?bbEof@@YGHPAVBBStream@@@Z
_freadavail=?bbReadAvail@@YGHPAVBBStream@@@Z
_freadbyte=?bbReadByte@@YGHPAVBBStream@@@Z
_freadshort=?bbReadShort@@YGHPAVBBStream@@@Z
_freadint=?bbReadInt@@YGHPAVBBStream@@@Z
_freadfloat=?bbReadFloat@@YGMPAVBBStream@@@Z
_freadstring=?bbReadString@@YGPAVBBString@@PAVBBStream@@@Z
_freadline=?bbReadLine@@YGPAVBBString@@PAVBBStream@@@Z
_fwritebyte=?bbWriteByte@@YGXPAVBBStream@@H@Z
_fwriteshort=?bbWriteShort@@YGXPAVBBStream@@H@Z
_fwriteint=?bbWriteInt@@YGXPAVBBStream@@H@Z
_fwritefloat=?bbWriteFloat@@YGXPAVBBStream@@M@Z
_fwritestring=?bbWriteString@@YGXPAVBBStream@@PAVBBString@@@Z
_fwriteline=?bbWriteLine@@YGXPAVBBStream@@PAVBBString@@@Z
_fcopystream=?bbCopyStream@@YGXPAVBBStream@@0H@Z
_fopenfile=?bbOpenFile@@YGPAVBBFile@@PAVBBString@@@Z
_freadfile=?bbReadFile@@YGPAVBBFile@@PAVBBString@@@Z
_fwritefile=?bbWriteFile@@YGPAVBBFile@@PAVBBString@@@Z
_fclosefile=?bbCloseFile@@YGXPAVBBFile@@@Z
_ffilepos=?bbFilePos@@YGHPAVBBFile@@@Z
_fseekfile=?bbSeekFile@@YGHPAVBBFile@@H@Z
_ffilesize=?bbFileSize@@YGHPAVBBString@@@Z
_ffiletype=?bbFileType@@YGHPAVBBString@@@Z
_fcopyfile=?bbCopyFile@@YGHPAVBBString@@0@Z
_fdeletefile=?bbDeleteFile@@YGHPAVBBString@@@Z
_freaddir=?bbReadDir@@YGPAVBBDir@@PAVBBString@@@Z
_fclosedir=?bbCloseDir@@YGXPAVBBDir@@@Z
_fmorefiles=?bbMoreFiles@@YGHPAVBBDir@@@Z
_fnextfile=?bbNextFile@@YGPAVBBString@@PAVBBDir@@@Z
_fcurrentdir=?bbCurrentDir@@YGPAVBBString@@XZ
_fchangedir=?bbChangeDir@@YGHPAVBBString@@@Z
_fcreatedir=?bbCreateDir@@YGHPAVBBString@@@Z
_fdeletedir=?bbDeleteDir@@YGHPAVBBString@@@Z
_fmillisecs=?bbMilliSecs@@YGHXZ
_fdelay=?bbDelay@@YGXH@Z
_fcurrentdate=?bbCurrentDate@@YGPAVBBString@@XZ
_fcurrenttime=?bbCurrentTime@@YGPAVBBString@@XZ
_fcreatetimer=?bbCreateTimer@@YGPAVBBTimer@@M@Z
_ffreetimer=?bbFreeTimer@@YGXPAVBBTimer@@@Z
_ftimerticks=?bbTimerTicks@@YGHPAVBBTimer@@@Z
_fwaittimer=?bbWaitTimer@@YGHPAVBBTimer@@@Z
_fresettimer=?bbResetTimer@@YGXPAVBBTimer@@@Z
_fpausetimer=?bbPauseTimer@@YGXPAVBBTimer@@@Z
_fresumetimer=?bbResumeTimer@@YGXPAVBBTimer@@@Z
_fcreateprocess=?bbCreateProcess@@YGPAVBBStream@@PAVBBString@@@Z
_floadfont=?bbLoadFont@@YGPAVBBFont@@PAVBBString@@H_N11@Z
_ffreefont=?bbFreeFont@@YGXPAVBBFont@@@Z
_ffontname=?bbFontName@@YGPAVBBString@@PAVBBFont@@@Z
_ffontsize=?bbFontSize@@YGHPAVBBFont@@@Z
_ffontstyle=?bbFontStyle@@YGHPAVBBFont@@@Z
_ffontascent=?bbFontAscent@@YGHPAVBBFont@@@Z
_ffontdescent=?bbFontDescent@@YGHPAVBBFont@@@Z
_fdottedip=?bbDottedIP@@YGPAVBBString@@H@Z
_fcounthostips=?bbCountHostIPs@@YGHPAVBBString@@@Z
_fhostip=?bbHostIP@@YGHH@Z
_fcreateudpstream=?bbCreateUDPStream@@YGPAVUDPStream@@H@Z
_fcloseudpstream=?bbCloseUDPStream@@YGXPAVUDPStream@@@Z
_fsendudpmsg=?bbSendUDPMsg@@YGXPAVUDPStream@@HH@Z
_frecvudpmsg=?bbRecvUDPMsg@@YGHPAVUDPStream@@@Z
_fudpstreamip=?bbUDPStreamIP@@YGHPAVUDPStream@@@Z
_fudpstreamport=?bbUDPStreamPort@@YGHPAVUDPStream@@@Z
_fudpmsgip=?bbUDPMsgIP@@YGHPAVUDPStream@@@Z
_fudpmsgport=?bbUDPMsgPort@@YGHPAVUDPStream@@@Z
_fudptimeouts=?bbUDPTimeouts@@YGXH@Z
_fopentcpstream=?bbOpenTCPStream@@YGPAVTCPStream@@PAVBBString@@HH@Z
_fclosetcpstream=?bbCloseTCPStream@@YGXPAVTCPStream@@@Z
_fcreatetcpserver=?bbCreateTCPServer@@YGPAVTCPServer@@H@Z
_fclosetcpserver=?bbCloseTCPServer@@YGXPAVTCPServer@@@Z
_faccepttcpstream=?bbAcceptTCPStream@@YGPAVTCPStream@@PAVTCPServer@@@Z
_ftcpstreamip=?bbTCPStreamIP@@YGHPAVTCPStream@@@Z
_ftcpstreamport=?bbTCPStreamPort@@YGHPAVTCPStream@@@Z
_ftcptimeouts=?bbTCPTimeouts@@YGXHH@Z
_floadsound=?bbLoadSound@@YGPAVBBSound@@PAVBBString@@@Z
_ffreesound=?bbFreeSound@@YGXPAVBBSound@@@Z
_floopsound=?bbLoopSound@@YGXPAVBBSound@@@Z
_fsoundpitch=?bbSoundPitch@@YGXPAVBBSound@@H@Z
_fsoundvolume=?bbSoundVolume@@YGXPAVBBSound@@M@Z
_fsoundpan=?bbSoundPan@@YGXPAVBBSound@@M@Z
_fplaysound=?bbPlaySound@@YGHPAVBBSound@@H@Z
_fplaymusic=?bbPlayMusic@@YGHPAVBBString@@H@Z
_fplaycdtrack=?bbPlayCDTrack@@YGHHH@Z
_fstopchannel=?bbStopChannel@@YGXH@Z
_fpausechannel=?bbPauseChannel@@YGXH@Z
_fresumechannel=?bbResumeChannel@@YGXH@Z
_fchannelpitch=?bbChannelPitch@@YGXHH@Z
_fchannelvolume=?bbChannelVolume@@YGXHM@Z
_fchannelpan=?bbChannelPan@@YGXHM@Z
_fchannelplaying=?bbChannelPlaying@@YGHH@Z
_fjoytype=?bbJoyType@@YGHH@Z
_fjoydown=?bbJoyDown@@YGHHH@Z
_fjoyhit=?bbJoyHit@@YGHHH@Z
_fjoyx=?bbJoyX@@YGMH@Z
_fjoyy=?bbJoyY@@YGMH@Z
_fjoyz=?bbJoyZ@@YGMH@Z
_fjoyu=?bbJoyU@@YGMH@Z
_fjoyv=?bbJoyV@@YGMH@Z
_fjoypitch=?bbJoyPitch@@YGMH@Z
_fjoyyaw=?bbJoyYaw@@YGMH@Z
_fjoyroll=?bbJoyRoll@@YGMH@Z
_fjoyhat=?bbJoyHat@@YGHH@Z
_fjoyxdir=?bbJoyXDir@@YGHH@Z
_fjoyydir=?bbJoyYDir@@YGHH@Z
_fjoyzdir=?bbJoyZDir@@YGHH@Z
_fjoyudir=?bbJoyUDir@@YGHH@Z
_fjoyvdir=?bbJoyVDir@@YGHH@Z
_fflushjoy=?bbFlushJoy@@YGXXZ
_ffreegadget=?bbFreeGadget@@YGXPAVBBGadget@@@Z
_fsetgadgetfont=?bbSetGadgetFont@@YGXPAVBBGadget@@PAVBBFont@@@Z
_fsetgadgettext=?bbSetGadgetText@@YGXPAVBBGadget@@PAVBBString@@@Z
_fsetgadgetshape=?bbSetGadgetShape@@YGXPAVBBGadget@@HHHH@Z
_fsetgadgetlayout=?bbSetGadgetLayout@@YGXPAVBBGadget@@HHHH@Z
_fshowgadget=?bbShowGadget@@YGXPAVBBGadget@@@Z
_fhidegadget=?bbHideGadget@@YGXPAVBBGadget@@@Z
_fenablegadget=?bbEnableGadget@@YGXPAVBBGadget@@@Z
_fdisablegadget=?bbDisableGadget@@YGXPAVBBGadget@@@Z
_factivategadget=?bbActivateGadget@@YGXPAVBBGadget@@@Z
_fgadgetfont=?bbGadgetFont@@YGPAVBBFont@@PAVBBGadget@@@Z
_fgadgettext=?bbGadgetText@@YGPAVBBString@@PAVBBGadget@@@Z
_fgadgetx=?bbGadgetX@@YGHPAVBBGadget@@@Z
_fgadgety=?bbGadgetY@@YGHPAVBBGadget@@@Z
_fgadgetwidth=?bbGadgetWidth@@YGHPAVBBGadget@@@Z
_fgadgetheight=?bbGadgetHeight@@YGHPAVBBGadget@@@Z
_fgadgetgroup=?bbGadgetGroup@@YGPAVBBGroup@@PAVBBGadget@@@Z
_fclientwidth=?bbClientWidth@@YGHPAVBBGroup@@@Z
_fclientheight=?bbClientHeight@@YGHPAVBBGroup@@@Z
_fcreatemenu=?bbCreateMenu@@YGPAVBBMenu@@PAVBBString@@HPAV1@@Z
_fsetmenutext=?bbSetMenuText@@YGXPAVBBMenu@@PAVBBString@@@Z
_fcheckmenu=?bbCheckMenu@@YGXPAVBBMenu@@@Z
_funcheckmenu=?bbUncheckMenu@@YGXPAVBBMenu@@@Z
_fenablemenu=?bbEnableMenu@@YGXPAVBBMenu@@@Z
_fdisablemenu=?bbDisableMenu@@YGXPAVBBMenu@@@Z
_fmenuchecked=?bbMenuChecked@@YGHPAVBBMenu@@@Z
_fmenuenabled=?bbMenuEnabled@@YGHPAVBBMenu@@@Z
_fmenutext=?bbMenuText@@YGPAVBBString@@PAVBBMenu@@@Z
_floadiconstrip=?bbLoadIconStrip@@YGPAVBBIconStrip@@PAVBBString@@@Z
_ffreeiconstrip=?bbFreeIconStrip@@YGXPAVBBIconStrip@@@Z
_fsetgadgeticonstrip=?bbSetGadgetIconStrip@@YGXPAVBBGadget@@PAVBBIconStrip@@@Z
_fcreatelabel=?bbCreateLabel@@YGPAVBBLabel@@PAVBBString@@HHHHPAVBBGroup@@H@Z
_fcreatebutton=?bbCreateButton@@YGPAVBBButton@@PAVBBString@@HHHHPAVBBGroup@@H@Z
_fsetbuttonstate=?bbSetButtonState@@YGXPAVBBButton@@H@Z
_fbuttonstate=?bbButtonState@@YGHPAVBBButton@@@Z
_fcreatetextfield=?bbCreateTextField@@YGPAVBBTextField@@HHHHPAVBBGroup@@H@Z
_ftextfieldtext=?bbTextFieldText@@YGPAVBBString@@PAVBBTextField@@@Z
_fcreatecombobox=?bbCreateComboBox@@YGPAVBBComboBox@@HHHHPAVBBGroup@@H@Z
_fcreatelistbox=?bbCreateListBox@@YGPAVBBListBox@@HHHHPAVBBGroup@@H@Z
_fcreatetreeview=?bbCreateTreeView@@YGPAVBBTreeView@@HHHHPAVBBGroup@@H@Z
_ftreeviewroot=?bbTreeViewRoot@@YGPAVBBTreeViewNode@@PAVBBTreeView@@@Z
_fselectedtreeviewnode=?bbSelectedTreeViewNode@@YGPAVBBTreeViewNode@@PAVBBTreeView@@@Z
_fcounttreeviewnodes=?bbCountTreeViewNodes@@YGHPAVBBTreeViewNode@@@Z
_faddtreeviewnode=?bbAddTreeViewNode@@YGPAVBBTreeViewNode@@PAVBBString@@PAV1@H@Z
_finserttreeviewnode=?bbInsertTreeViewNode@@YGPAVBBTreeViewNode@@HPAVBBString@@PAV1@H@Z
_fmodifytreeviewnode=?bbModifyTreeViewNode@@YGXPAVBBTreeViewNode@@PAVBBString@@H@Z
_fselecttreeviewnode=?bbSelectTreeViewNode@@YGXPAVBBTreeViewNode@@@Z
_fexpandtreeviewnode=?bbExpandTreeViewNode@@YGXPAVBBTreeViewNode@@@Z
_fcollapsetreeviewnode=?bbCollapseTreeViewNode@@YGXPAVBBTreeViewNode@@@Z
_ffreetreeviewnode=?bbFreeTreeViewNode@@YGXPAVBBTreeViewNode@@@Z
_ftreeviewnodetext=?bbTreeViewNodeText@@YGPAVBBString@@PAVBBTreeViewNode@@@Z
_fcreateprogbar=?bbCreateProgBar@@YGPAVBBProgBar@@HHHHPAVBBGroup@@H@Z
_fupdateprogbar=?bbUpdateProgBar@@YGXPAVBBProgBar@@M@Z
_fcreateslider=?bbCreateSlider@@YGPAVBBSlider@@HHHHPAVBBGroup@@H@Z
_fsetsliderrange=?bbSetSliderRange@@YGXPAVBBSlider@@HH@Z
_fsetslidervalue=?bbSetSliderValue@@YGXPAVBBSlider@@H@Z
_fslidervalue=?bbSliderValue@@YGHPAVBBSlider@@@Z
_fcreatewindow=?bbCreateWindow@@YGPAVBBWindow@@PAVBBString@@HHHHPAVBBGroup@@H@Z
_factivewindow=?bbActiveWindow@@YGPAVBBWindow@@XZ
_factivatewindow=?bbActivateWindow@@YGXPAVBBWindow@@@Z
_fupdatewindowmenu=?bbUpdateWindowMenu@@YGXPAVBBWindow@@@Z
_fsetstatustext=?bbSetStatusText@@YGXPAVBBWindow@@PAVBBString@@@Z
_fsetminwindowsize=?bbSetMinWindowSize@@YGXPAVBBWindow@@HH@Z
_fminimizewindow=?bbMinimizeWindow@@YGXPAVBBWindow@@@Z
_fmaximizewindow=?bbMaximizeWindow@@YGXPAVBBWindow@@@Z
_frestorewindow=?bbRestoreWindow@@YGXPAVBBWindow@@@Z
_fwindowminimized=?bbWindowMinimized@@YGHPAVBBWindow@@@Z
_fwindowmaximized=?bbWindowMaximized@@YGHPAVBBWindow@@@Z
_fwindowmenu=?bbWindowMenu@@YGPAVBBMenu@@PAVBBWindow@@@Z
_fcreatetabber=?bbCreateTabber@@YGPAVBBTabber@@HHHHPAVBBGroup@@H@Z
_fcreatepanel=?bbCreatePanel@@YGPAVBBPanel@@HHHHPAVBBGroup@@H@Z
_fsetpanelimage=?bbSetPanelImage@@YGXPAVBBPanel@@PAVBBString@@@Z
_fsetpanelcolor=?bbSetPanelColor@@YGXPAVBBPanel@@HHH@Z
_fcreatetextarea=?bbCreateTextArea@@YGPAVBBTextArea@@HHHHPAVBBGroup@@H@Z
_fsettextareatabs=?bbSetTextAreaTabs@@YGXPAVBBTextArea@@H@Z
_fsettextareafont=?bbSetTextAreaFont@@YGXPAVBBTextArea@@PAVBBFont@@@Z
_fsettextareacolor=?bbSetTextAreaColor@@YGXPAVBBTextArea@@HHH_N@Z
_ftextarealen=?bbTextAreaLen@@YGHPAVBBTextArea@@H@Z
_ftextarealinelen=?bbTextAreaLineLen@@YGHPAVBBTextArea@@H@Z
_ftextareachar=?bbTextAreaChar@@YGHPAVBBTextArea@@H@Z
_ftextarealine=?bbTextAreaLine@@YGHPAVBBTextArea@@H@Z
_ftextareacursor=?bbTextAreaCursor@@YGHPAVBBTextArea@@H@Z
_ftextareasellen=?bbTextAreaSelLen@@YGHPAVBBTextArea@@H@Z
_faddtextareatext=?bbAddTextAreaText@@YGXPAVBBTextArea@@PAVBBString@@@Z
_fsettextareatext=?bbSetTextAreaText@@YGXPAVBBTextArea@@PAVBBString@@HHH@Z
_fformattextareatext=?bbFormatTextAreaText@@YGXPAVBBTextArea@@HHHHHHH@Z
_ftextareatext=?bbTextAreaText@@YGPAVBBString@@PAVBBTextArea@@HHH@Z
_flocktextarea=?bbLockTextArea@@YGXPAVBBTextArea@@@Z
_funlocktextarea=?bbUnlockTextArea@@YGXPAVBBTextArea@@@Z
_fcreatetoolbar=?bbCreateToolBar@@YGPAVBBToolBar@@PAVBBString@@HHHHPAVBBGroup@@H@Z
_fenabletoolbaritem=?bbEnableToolBarItem@@YGXPAVBBToolBar@@H@Z
_fdisabletoolbaritem=?bbDisableToolBarItem@@YGXPAVBBToolBar@@H@Z
_fsettoolbartips=?bbSetToolBarTips@@YGXPAVBBToolBar@@PAVBBString@@@Z
_fdesktop=?bbDesktop@@YGPAVBBDesktop@@XZ
_fcleargadgetitems=?bbClearGadgetItems@@YGXPAVBBGadget@@@Z
_faddgadgetitem=?bbAddGadgetItem@@YGXPAVBBGadget@@PAVBBString@@HH@Z
_finsertgadgetitem=?bbInsertGadgetItem@@YGXPAVBBGadget@@HPAVBBString@@H@Z
_fmodifygadgetitem=?bbModifyGadgetItem@@YGXPAVBBGadget@@HPAVBBString@@H@Z
_fremovegadgetitem=?bbRemoveGadgetItem@@YGXPAVBBGadget@@H@Z
_fselectgadgetitem=?bbSelectGadgetItem@@YGXPAVBBGadget@@H@Z
_fgadgetitemtext=?bbGadgetItemText@@YGPAVBBString@@PAVBBGadget@@H@Z
_fcountgadgetitems=?bbCountGadgetItems@@YGHPAVBBGadget@@@Z
_fselectedgadgetitem=?bbSelectedGadgetItem@@YGHPAVBBGadget@@@Z
_frequestfont=?bbRequestFont@@YGPAVBBFont@@XZ
_frequestcolor=?bbRequestColor@@YGHHHH@Z
_frequestedred=?bbRequestedRed@@YGHXZ
_frequestedgreen=?bbRequestedGreen@@YGHXZ
_frequestedblue=?bbRequestedBlue@@YGHXZ
_frequestdir=?bbRequestDir@@YGPAVBBString@@PAV1@0@Z
_frequestfile=?bbRequestFile@@YGPAVBBString@@PAV1@0_N0@Z
_fvwait=?bbVWait@@YGXH@Z
_fscanline=?bbScanLine@@YGHXZ
_favailvidmem=?bbAvailVidMem@@YGHXZ
_ftotalvidmem=?bbTotalVidMem@@YGHXZ
_fcountgfxdrivers=?b2dCountGfxDrivers@@YGHXZ
_fgfxdrivername=?b2dGfxDriverName@@YGPAVBBString@@H@Z
_fsetgfxdriver=?b2dSetGfxDriver@@YGXH@Z
_fcountgfxmodes=?b2dCountGfxModes@@YGHXZ
_fgfxmodewidth=?b2dGfxModeWidth@@YGHH@Z
_fgfxmodeheight=?b2dGfxModeHeight@@YGHH@Z
_fgfxmodedepth=?b2dGfxModeDepth@@YGHH@Z
_fgfxmodeformat=?b2dGfxModeFormat@@YGHH@Z
_fgfxmodeexists=?b2dGfxModeExists@@YGHHHHH@Z
_fgraphics=?b2dGraphics@@YGXHHHH@Z
_fendgraphics=?b2dEndGraphics@@YGXXZ
_fbackbuffer=?b2dBackBuffer@@YGPAVB2DBuffer@@XZ
_ffrontbuffer=?b2dBackBuffer@@YGPAVB2DBuffer@@XZ
_fsetbuffer=?b2dSetBuffer@@YGPAVB2DBuffer@@PAV1@@Z
_fgraphicsbuffer=?b2dGraphicsBuffer@@YGPAVB2DBuffer@@XZ
_fdesktopbuffer=?b2dDesktopBuffer@@YGPAVB2DBuffer@@XZ
_floadbuffer=?b2dLoadBuffer@@YGHPAVB2DBuffer@@PAVBBString@@@Z
_fsavebuffer=?b2dSaveBuffer@@YGHPAVB2DBuffer@@PAVBBString@@@Z
_fgraphicswidth=?b2dGraphicsWidth@@YGHXZ
_fgraphicsheight=?b2dGraphicsHeight@@YGHXZ
_fgraphicsdepth=?b2dGraphicsDepth@@YGHXZ
_fgraphicsformat=?b2dGraphicsFormat@@YGHXZ
_fflip=?b2dFlip@@YGX_N@Z
_flockbuffer=?b2dLockBuffer@@YGXPAVB2DBuffer@@@Z
_funlockbuffer=?b2dUnlockBuffer@@YGXPAVB2DBuffer@@@Z
_flockedpitch=?b2dLockedPitch@@YGHPAVB2DBuffer@@@Z
_flockedformat=?b2dLockedFormat@@YGHPAVB2DBuffer@@@Z
_flockedpixels=?b2dLockedPixels@@YGPAVBBBank@@PAVB2DBuffer@@@Z
_freadpixel=?b2dReadPixel@@YGIHHPAVB2DBuffer@@@Z
_freadpixelfast=?b2dReadPixelFast@@YGIHHPAVB2DBuffer@@@Z
_fwritepixel=?b2dWritePixel@@YGXHHIPAVB2DBuffer@@@Z
_fwritepixelfast=?b2dWritePixelFast@@YGXHHIPAVB2DBuffer@@@Z
_fcopypixel=?b2dCopyPixel@@YGXHHPAVB2DBuffer@@HH0@Z
_fcopypixelfast=?b2dCopyPixelFast@@YGXHHPAVB2DBuffer@@HH0@Z
_fcopyrect=?b2dCopyRect@@YGXHHHHHHPAVB2DBuffer@@0@Z
_fcreatecanvas=?b2dCreateCanvas@@YGPAVBBCanvas@@HHHHPAVBBGroup@@H@Z
_fcanvasbuffer=?b2dCanvasBuffer@@YGPAVB2DBuffer@@PAVBBCanvas@@@Z
_fflipcanvas=?b2dFlipCanvas@@YGXPAVBBCanvas@@_N@Z
_fcolor=?b2dColor@@YGXHHH@Z
_fclscolor=?b2dClsColor@@YGXHHH@Z
_fsetfont=?b2dSetFont@@YGXPAVBBFont@@@Z
_forigin=?b2dOrigin@@YGXHH@Z
_fviewport=?b2dViewport@@YGXHHHH@Z
_fcls=?b2dCls@@YGXXZ
_fplot=?b2dPlot@@YGXHH@Z
_fline=?b2dLine@@YGXHHHH@Z
_frect=?b2dRect@@YGXHHHH_N@Z
_foval=?b2dOval@@YGXHHHH_N@Z
_ftext=?b2dText@@YGXHHPAVBBString@@_N1@Z
_fgetcolor=?b2dGetColor@@YGXHH@Z
_fcolorred=?b2dColorRed@@YGHXZ
_fcolorgreen=?b2dColorGreen@@YGHXZ
_fcolorblue=?b2dColorBlue@@YGHXZ
_fstringwidth=?b2dStringWidth@@YGHPAVBBString@@@Z
_fstringheight=?b2dStringHeight@@YGHPAVBBString@@@Z
_ffontwidth=?b2dFontWidth@@YGHXZ
_ffontheight=?b2dFontHeight@@YGHXZ
_fopenmovie=?b2dOpenMovie@@YGPAVBBMovie@@PAVBBString@@@Z
_fclosemovie=?b2dCloseMovie@@YGXPAVBBMovie@@@Z
_fmoviewidth=?b2dMovieWidth@@YGHPAVBBMovie@@@Z
_fmovieheight=?b2dMovieHeight@@YGHPAVBBMovie@@@Z
_fmovieplaying=?b2dMoviePlaying@@YGHPAVBBMovie@@@Z
_fdrawmovie=?b2dDrawMovie@@YGHPAVBBMovie@@HHHH@Z
_fmousex=?b2dMouseX@@YGHPAVBBCanvas@@@Z
_fmousey=?b2dMouseY@@YGHPAVBBCanvas@@@Z
_fmousexspeed=?b2dMouseXSpeed@@YGHPAVBBCanvas@@@Z
_fmouseyspeed=?b2dMouseYSpeed@@YGHPAVBBCanvas@@@Z
_fmovemouse=?b2dMoveMouse@@YGXHHPAVBBCanvas@@@Z
_fshowpointer=?b2dShowPointer@@YGXPAVBBCanvas@@@Z
_fhidepointer=?b2dHidePointer@@YGXPAVBBCanvas@@@Z
_fsetgamma=?b2dSetGamma@@YGXHHHHHH@Z
_fupdategamma=?b2dUpdateGamma@@YGXH@Z
_fgammared=?b2dGammaRed@@YGHH@Z
_fgammagreen=?b2dGammaGreen@@YGHH@Z
_fgammablue=?b2dGammaBlue@@YGHH@Z
_floadimage=?b2dLoadImage@@YGPAVB2DImage@@PAVBBString@@H@Z
_floadanimimage=?b2dLoadAnimImage@@YGPAVB2DImage@@PAVBBString@@HHHHH@Z
_fcreateimage=?b2dCreateImage@@YGPAVB2DImage@@HHHH@Z
_fcopyimage=?b2dCopyImage@@YGPAVB2DImage@@PAV1@@Z
_ffreeimage=?b2dFreeImage@@YGXPAVB2DImage@@@Z
_fmaskimage=?b2dMaskImage@@YGXPAVB2DImage@@HHH@Z
_fhandleimage=?b2dHandleImage@@YGXPAVB2DImage@@HH@Z
_fmidhandle=?b2dMidHandle@@YGXPAVB2DImage@@@Z
_fautomidhandle=?b2dAutoMidHandle@@YGX_N@Z
_fimagewidth=?b2dImageWidth@@YGHPAVB2DImage@@@Z
_fimageheight=?b2dImageHeight@@YGHPAVB2DImage@@@Z
_fimagexhandle=?b2dImageXHandle@@YGHPAVB2DImage@@@Z
_fimageyhandle=?b2dImageYHandle@@YGHPAVB2DImage@@@Z
_fimagebuffer=?b2dImageBuffer@@YGPAVB2DBuffer@@PAVB2DImage@@H@Z
_fsaveimage=?b2dSaveImage@@YGHPAVB2DImage@@PAVBBString@@H@Z
_ftformfilter=?b2dTFormFilter@@YGX_N@Z
_ftformimage=?b2dTFormImage@@YGXPAVB2DImage@@MMMM@Z
_fscaleimage=?b2dScaleImage@@YGXPAVB2DImage@@MM@Z
_fresizeimage=?b2dResizeImage@@YGXPAVB2DImage@@MM@Z
_frotateimage=?b2dRotateImage@@YGXPAVB2DImage@@M@Z
_fdrawimage=?b2dDrawImage@@YGXPAVB2DImage@@HHH@Z
_fdrawblock=?b2dDrawBlock@@YGXPAVB2DImage@@HHH@Z
_ftileimage=?b2dTileImage@@YGXPAVB2DImage@@HHH@Z
_ftileblock=?b2dTileBlock@@YGXPAVB2DImage@@HHH@Z
_fdrawimagerect=?b2dDrawImageRect@@YGXPAVB2DImage@@HHHHHHH@Z
_fdrawblockrect=?b2dDrawBlockRect@@YGXPAVB2DImage@@HHHHHHH@Z
_fgrabimage=?b2dGrabImage@@YGXPAVB2DImage@@HHH@Z
_frectsoverlap=?b2dRectsOverlap@@YGHHHHHHHHH@Z
_fimagesoverlap=?b2dImagesOverlap@@YGHPAVB2DImage@@HH0HH@Z
_fimagescollide=?b2dImagesCollide@@YGHPAVB2DImage@@HHH0HHH@Z
_fimagerectoverlap=?b2dImageRectOverlap@@YGHPAVB2DImage@@HHHHHH@Z
_fimagerectcollide=?b2dImageRectCollide@@YGHPAVB2DImage@@HHHHHHH@Z
_fpeekevent=?b2dPeekEvent@@YGHXZ
_fwaitevent=?b2dWaitEvent@@YGHH@Z
_feventid=?b2dEventID@@YGHXZ
_feventdata=?b2dEventData@@YGHXZ
_feventx=?b2dEventX@@YGHXZ
_feventy=?b2dEventY@@YGHXZ
_feventz=?b2dEventZ@@YGHXZ
_feventsource=?b2dEventSource@@YGPAXXZ
_fkeydown=?b2dKeyDown@@YGHH@Z
_fkeyhit=?b2dKeyHit@@YGHH@Z
_fgetkey=?b2dGetKey@@YGHXZ
_fwaitkey=?b2dWaitKey@@YGHXZ
_fkeywait=?b2dWaitKey@@YGHXZ
_fflushkeys=?b2dFlushKeys@@YGXXZ
_fmousez=?b2dMouseZ@@YGHXZ
_fmousezspeed=?b2dMouseZSpeed@@YGHXZ
_fmousedown=?b2dMouseDown@@YGHH@Z
_fmousehit=?b2dMouseHit@@YGHH@Z
_fgetmouse=?b2dGetMouse@@YGHXZ
_fwaitmouse=?b2dWaitMouse@@YGHXZ
_fmousewait=?b2dWaitMouse@@YGHXZ
_fflushmouse=?b2dFlushMouse@@YGXXZ
